target datalayout = "e-m:e-p270:32:32-p271:32:32-p272:64:64-i64:64-i128:128-f80:128-n8:16:32:64-S128"
target triple = "x86_64-pc-linux-gnu"

%struct.elist = type { ptr, i64 }
%struct.Agobj_s = type { %struct.Agtag_s, ptr }
%struct.Agtag_s = type { i32, i64 }
%struct.Agrec_s = type { ptr, ptr }
%struct.boxf = type { %struct.pointf_s, %struct.pointf_s }
%struct.pointf_s = type { double, double }
%struct.Agnodeinfo_t = type { %struct.Agrec_s, ptr, ptr, %struct.pointf_s, double, double, %struct.boxf, double, double, double, double, double, ptr, ptr, ptr, i8, i8, i8, i8, i32, i32, i32, ptr, double, i8, i8, ptr, ptr, i8, i64, i8, i8, i8, ptr, ptr, %struct.elist, %struct.elist, %struct.elist, %struct.elist, %struct.elist, ptr, i32, ptr, i32, i32, double, %struct.elist, %struct.elist, %struct.elist, %struct.elist, ptr, i32, i32, i32, [1 x double] }

; Function Attrs: nounwind uwtable
define internal i32 @increasingrankcmpf(ptr noundef %0, ptr noundef %1) #0 {
  %3 = alloca i32, align 4
  %4 = alloca ptr, align 8
  %5 = alloca ptr, align 8
  %6 = alloca ptr, align 8
  %7 = alloca ptr, align 8
  %8 = alloca i32, align 4
  store ptr %0, ptr %4, align 8, !tbaa !128
  store ptr %1, ptr %5, align 8, !tbaa !128
  call void @llvm.lifetime.start.p0(i64 8, ptr %6) #14
  %9 = load ptr, ptr %4, align 8, !tbaa !128
  store ptr %9, ptr %6, align 8, !tbaa !122
  call void @llvm.lifetime.start.p0(i64 8, ptr %7) #14
  %10 = load ptr, ptr %5, align 8, !tbaa !128
  store ptr %10, ptr %7, align 8, !tbaa !122
  %11 = load ptr, ptr %6, align 8, !tbaa !122
  %12 = load ptr, ptr %11, align 8, !tbaa !48
  %13 = getelementptr inbounds nuw %struct.Agobj_s, ptr %12, i32 0, i32 1
  %14 = load ptr, ptr %13, align 8, !tbaa !27
  %15 = getelementptr inbounds nuw %struct.Agnodeinfo_t, ptr %14, i32 0, i32 43
  %16 = load i32, ptr %15, align 8, !tbaa !76
  %17 = load ptr, ptr %7, align 8, !tbaa !122
  %18 = load ptr, ptr %17, align 8, !tbaa !48
  %19 = getelementptr inbounds nuw %struct.Agobj_s, ptr %18, i32 0, i32 1
  %20 = load ptr, ptr %19, align 8, !tbaa !27
  %21 = getelementptr inbounds nuw %struct.Agnodeinfo_t, ptr %20, i32 0, i32 43
  %22 = load i32, ptr %21, align 8, !tbaa !76
  %23 = icmp slt i32 %16, %22
  br i1 %23, label %24, label %25

24:                                               ; preds = %2
  store i32 -1, ptr %3, align 4
  store i32 1, ptr %8, align 4
  br label %41

25:                                               ; preds = %2
  %26 = load ptr, ptr %6, align 8, !tbaa !122
  %27 = load ptr, ptr %26, align 8, !tbaa !48
  %28 = getelementptr inbounds nuw %struct.Agobj_s, ptr %27, i32 0, i32 1
  %29 = load ptr, ptr %28, align 8, !tbaa !27
  %30 = getelementptr inbounds nuw %struct.Agnodeinfo_t, ptr %29, i32 0, i32 43
  %31 = load i32, ptr %30, align 8, !tbaa !76
  %32 = load ptr, ptr %7, align 8, !tbaa !122
  %33 = load ptr, ptr %32, align 8, !tbaa !48
  %34 = getelementptr inbounds nuw %struct.Agobj_s, ptr %33, i32 0, i32 1
  %35 = load ptr, ptr %34, align 8, !tbaa !27
  %36 = getelementptr inbounds nuw %struct.Agnodeinfo_t, ptr %35, i32 0, i32 43
  %37 = load i32, ptr %36, align 8, !tbaa !76
  %38 = icmp sgt i32 %31, %37
  br i1 %38, label %39, label %40

39:                                               ; preds = %25
  store i32 1, ptr %3, align 4
  store i32 1, ptr %8, align 4
  br label %41

40:                                               ; preds = %25
  store i32 0, ptr %3, align 4
  store i32 1, ptr %8, align 4
  br label %41

41:                                               ; preds = %40, %39, %24
  call void @llvm.lifetime.end.p0(i64 8, ptr %7) #14
  call void @llvm.lifetime.end.p0(i64 8, ptr %6) #14
  %42 = load i32, ptr %3, align 4
  ret i32 %42
}